target datalayout = "e-m:e-p270:32:32-p271:32:32-p272:64:64-i64:64-i128:128-f80:128-n8:16:32:64-S128"
target triple = "x86_64-pc-linux-gnu"

%struct._Node = type { %union.anon.35 }
%union.anon.35 = type { %struct.BagNode }
%struct.BagNode = type { i32, i32, ptr, ptr, i32, %union.anon.37, i32, i32, i32, i32, i32 }
%union.anon.37 = type { %struct.anon.40 }
%struct.anon.40 = type { ptr, ptr }
%struct.anon.36 = type { i32, i32, ptr, ptr }
%struct.ConsAltNode = type { i32, i32, ptr, ptr, ptr }
%struct.BackRefNode = type { i32, i32, ptr, i32, [6 x i32], ptr, i32 }
%struct.GroupNumMap = type { i32 }

; Function Attrs: nounwind uwtable
define internal i32 @renumber_backref_node(ptr noundef %0, ptr noundef %1) #0 {
  %3 = alloca i32, align 4
  %4 = alloca ptr, align 8
  %5 = alloca ptr, align 8
  %6 = alloca i32, align 4
  %7 = alloca i32, align 4
  %8 = alloca i32, align 4
  %9 = alloca i32, align 4
  %10 = alloca ptr, align 8
  %11 = alloca ptr, align 8
  %12 = alloca i32, align 4
  store ptr %0, ptr %4, align 8, !tbaa !47
  store ptr %1, ptr %5, align 8, !tbaa !15
  call void @llvm.lifetime.start.p0(i64 4, ptr %6) #9
  call void @llvm.lifetime.start.p0(i64 4, ptr %7) #9
  call void @llvm.lifetime.start.p0(i64 4, ptr %8) #9
  call void @llvm.lifetime.start.p0(i64 4, ptr %9) #9
  call void @llvm.lifetime.start.p0(i64 8, ptr %10) #9
  call void @llvm.lifetime.start.p0(i64 8, ptr %11) #9
  %13 = load ptr, ptr %4, align 8, !tbaa !47
  %14 = getelementptr inbounds nuw %struct._Node, ptr %13, i32 0, i32 0
  store ptr %14, ptr %11, align 8, !tbaa !15
  %15 = load ptr, ptr %4, align 8, !tbaa !47
  %16 = getelementptr inbounds nuw %struct._Node, ptr %15, i32 0, i32 0
  %17 = getelementptr inbounds nuw %struct.anon.36, ptr %16, i32 0, i32 1
  %18 = load i32, ptr %17, align 4, !tbaa !32
  %19 = and i32 %18, 32768
  %20 = icmp ne i32 %19, 0
  br i1 %20, label %22, label %21

21:                                               ; preds = %2
  store i32 -209, ptr %3, align 4
  store i32 1, ptr %12, align 4
  br label %72

22:                                               ; preds = %2
  %23 = load ptr, ptr %11, align 8, !tbaa !15
  %24 = getelementptr inbounds nuw %struct.BackRefNode, ptr %23, i32 0, i32 3
  %25 = load i32, ptr %24, align 8, !tbaa !103
  store i32 %25, ptr %9, align 4, !tbaa !4
  %26 = load ptr, ptr %11, align 8, !tbaa !15
  %27 = getelementptr inbounds nuw %struct.BackRefNode, ptr %26, i32 0, i32 5
  %28 = load ptr, ptr %27, align 8, !tbaa !105
  %29 = icmp eq ptr %28, null
  br i1 %29, label %30, label %34

30:                                               ; preds = %22
  %31 = load ptr, ptr %11, align 8, !tbaa !15
  %32 = getelementptr inbounds nuw %struct.BackRefNode, ptr %31, i32 0, i32 4
  %33 = getelementptr inbounds [6 x i32], ptr %32, i64 0, i64 0
  store ptr %33, ptr %10, align 8, !tbaa !104
  br label %38

34:                                               ; preds = %22
  %35 = load ptr, ptr %11, align 8, !tbaa !15
  %36 = getelementptr inbounds nuw %struct.BackRefNode, ptr %35, i32 0, i32 5
  %37 = load ptr, ptr %36, align 8, !tbaa !105
  store ptr %37, ptr %10, align 8, !tbaa !104
  br label %38

38:                                               ; preds = %34, %30
  store i32 0, ptr %6, align 4, !tbaa !4
  store i32 0, ptr %7, align 4, !tbaa !4
  br label %39

39:                                               ; preds = %65, %38
  %40 = load i32, ptr %6, align 4, !tbaa !4
  %41 = load i32, ptr %9, align 4, !tbaa !4
  %42 = icmp slt i32 %40, %41
  br i1 %42, label %43, label %68

43:                                               ; preds = %39
  %44 = load ptr, ptr %5, align 8, !tbaa !15
  %45 = load ptr, ptr %10, align 8, !tbaa !104
  %46 = load i32, ptr %6, align 4, !tbaa !4
  %47 = sext i32 %46 to i64
  %48 = getelementptr inbounds i32, ptr %45, i64 %47
  %49 = load i32, ptr %48, align 4, !tbaa !4
  %50 = sext i32 %49 to i64
  %51 = getelementptr inbounds %struct.GroupNumMap, ptr %44, i64 %50
  %52 = getelementptr inbounds nuw %struct.GroupNumMap, ptr %51, i32 0, i32 0
  %53 = load i32, ptr %52, align 4, !tbaa !168
  store i32 %53, ptr %8, align 4, !tbaa !4
  %54 = load i32, ptr %8, align 4, !tbaa !4
  %55 = icmp sgt i32 %54, 0
  br i1 %55, label %56, label %64

56:                                               ; preds = %43
  %57 = load i32, ptr %8, align 4, !tbaa !4
  %58 = load ptr, ptr %10, align 8, !tbaa !104
  %59 = load i32, ptr %7, align 4, !tbaa !4
  %60 = sext i32 %59 to i64
  %61 = getelementptr inbounds i32, ptr %58, i64 %60
  store i32 %57, ptr %61, align 4, !tbaa !4
  %62 = load i32, ptr %7, align 4, !tbaa !4
  %63 = add nsw i32 %62, 1
  store i32 %63, ptr %7, align 4, !tbaa !4
  br label %64

64:                                               ; preds = %56, %43
  br label %65

65:                                               ; preds = %64
  %66 = load i32, ptr %6, align 4, !tbaa !4
  %67 = add nsw i32 %66, 1
  store i32 %67, ptr %6, align 4, !tbaa !4
  br label %39, !llvm.loop !201

68:                                               ; preds = %39
  %69 = load i32, ptr %7, align 4, !tbaa !4
  %70 = load ptr, ptr %11, align 8, !tbaa !15
  %71 = getelementptr inbounds nuw %struct.BackRefNode, ptr %70, i32 0, i32 3
  store i32 %69, ptr %71, align 8, !tbaa !103
  store i32 0, ptr %3, align 4
  store i32 1, ptr %12, align 4
  br label %72

72:                                               ; preds = %68, %21
  call void @llvm.lifetime.end.p0(i64 8, ptr %11) #9
  call void @llvm.lifetime.end.p0(i64 8, ptr %10) #9
  call void @llvm.lifetime.end.p0(i64 4, ptr %9) #9
  call void @llvm.lifetime.end.p0(i64 4, ptr %8) #9
  call void @llvm.lifetime.end.p0(i64 4, ptr %7) #9
  call void @llvm.lifetime.end.p0(i64 4, ptr %6) #9
  %73 = load i32, ptr %3, align 4
  ret i32 %73
}

; Function Attrs: nounwind uwtable
define internal i32 @renumber_backref_traverse(ptr noundef %0, ptr noundef %1) #0 {
  %3 = alloca i32, align 4
  %4 = alloca ptr, align 8
  %5 = alloca ptr, align 8
  %6 = alloca i32, align 4
  %7 = alloca ptr, align 8
  %8 = alloca i32, align 4
  store ptr %0, ptr %4, align 8, !tbaa !47
  store ptr %1, ptr %5, align 8, !tbaa !15
  call void @llvm.lifetime.start.p0(i64 4, ptr %6) #9
  store i32 0, ptr %6, align 4, !tbaa !4
  %9 = load ptr, ptr %4, align 8, !tbaa !47
  %10 = getelementptr inbounds nuw %struct._Node, ptr %9, i32 0, i32 0
  %11 = getelementptr inbounds nuw %struct.anon.36, ptr %10, i32 0, i32 0
  %12 = load i32, ptr %11, align 8, !tbaa !32
  switch i32 %12, label %117 [
    i32 7, label %13
    i32 8, label %13
    i32 4, label %33
    i32 5, label %40
    i32 3, label %99
    i32 6, label %103
  ]

13:                                               ; preds = %2, %2
  br label %14

14:                                               ; preds = %30, %13
  %15 = load ptr, ptr %4, align 8, !tbaa !47
  %16 = getelementptr inbounds nuw %struct._Node, ptr %15, i32 0, i32 0
  %17 = getelementptr inbounds nuw %struct.ConsAltNode, ptr %16, i32 0, i32 3
  %18 = load ptr, ptr %17, align 8, !tbaa !32
  %19 = load ptr, ptr %5, align 8, !tbaa !15
  %20 = call i32 @renumber_backref_traverse(ptr noundef %18, ptr noundef %19)
  store i32 %20, ptr %6, align 4, !tbaa !4
  br label %21

21:                                               ; preds = %14
  %22 = load i32, ptr %6, align 4, !tbaa !4
  %23 = icmp eq i32 %22, 0
  br i1 %23, label %24, label %30

24:                                               ; preds = %21
  %25 = load ptr, ptr %4, align 8, !tbaa !47
  %26 = getelementptr inbounds nuw %struct._Node, ptr %25, i32 0, i32 0
  %27 = getelementptr inbounds nuw %struct.ConsAltNode, ptr %26, i32 0, i32 4
  %28 = load ptr, ptr %27, align 8, !tbaa !32
  store ptr %28, ptr %4, align 8, !tbaa !47
  %29 = icmp ne ptr %28, null
  br label %30

30:                                               ; preds = %24, %21
  %31 = phi i1 [ false, %21 ], [ %29, %24 ]
  br i1 %31, label %14, label %32, !llvm.loop !200

32:                                               ; preds = %30
  br label %118

33:                                               ; preds = %2
  %34 = load ptr, ptr %4, align 8, !tbaa !47
  %35 = getelementptr inbounds nuw %struct._Node, ptr %34, i32 0, i32 0
  %36 = getelementptr inbounds nuw %struct.anon.36, ptr %35, i32 0, i32 3
  %37 = load ptr, ptr %36, align 8, !tbaa !32
  %38 = load ptr, ptr %5, align 8, !tbaa !15
  %39 = call i32 @renumber_backref_traverse(ptr noundef %37, ptr noundef %38)
  store i32 %39, ptr %6, align 4, !tbaa !4
  br label %118

40:                                               ; preds = %2
  call void @llvm.lifetime.start.p0(i64 8, ptr %7) #9
  %41 = load ptr, ptr %4, align 8, !tbaa !47
  %42 = getelementptr inbounds nuw %struct._Node, ptr %41, i32 0, i32 0
  store ptr %42, ptr %7, align 8, !tbaa !15
  %43 = load ptr, ptr %4, align 8, !tbaa !47
  %44 = getelementptr inbounds nuw %struct._Node, ptr %43, i32 0, i32 0
  %45 = getelementptr inbounds nuw %struct.anon.36, ptr %44, i32 0, i32 3
  %46 = load ptr, ptr %45, align 8, !tbaa !32
  %47 = load ptr, ptr %5, align 8, !tbaa !15
  %48 = call i32 @renumber_backref_traverse(ptr noundef %46, ptr noundef %47)
  store i32 %48, ptr %6, align 4, !tbaa !4
  %49 = load i32, ptr %6, align 4, !tbaa !4
  %50 = icmp ne i32 %49, 0
  br i1 %50, label %51, label %53

51:                                               ; preds = %40
  %52 = load i32, ptr %6, align 4, !tbaa !4
  store i32 %52, ptr %3, align 4
  store i32 1, ptr %8, align 4
  br label %96

53:                                               ; preds = %40
  %54 = load ptr, ptr %7, align 8, !tbaa !15
  %55 = getelementptr inbounds nuw %struct.BagNode, ptr %54, i32 0, i32 4
  %56 = load i32, ptr %55, align 8, !tbaa !156
  %57 = icmp eq i32 %56, 3
  br i1 %57, label %58, label %95

58:                                               ; preds = %53
  %59 = load ptr, ptr %7, align 8, !tbaa !15
  %60 = getelementptr inbounds nuw %struct.BagNode, ptr %59, i32 0, i32 5
  %61 = getelementptr inbounds nuw %struct.anon.40, ptr %60, i32 0, i32 0
  %62 = load ptr, ptr %61, align 8, !tbaa !32
  %63 = icmp ne ptr %62, null
  br i1 %63, label %64, label %76

64:                                               ; preds = %58
  %65 = load ptr, ptr %7, align 8, !tbaa !15
  %66 = getelementptr inbounds nuw %struct.BagNode, ptr %65, i32 0, i32 5
  %67 = getelementptr inbounds nuw %struct.anon.40, ptr %66, i32 0, i32 0
  %68 = load ptr, ptr %67, align 8, !tbaa !32
  %69 = load ptr, ptr %5, align 8, !tbaa !15
  %70 = call i32 @renumber_backref_traverse(ptr noundef %68, ptr noundef %69)
  store i32 %70, ptr %6, align 4, !tbaa !4
  %71 = load i32, ptr %6, align 4, !tbaa !4
  %72 = icmp ne i32 %71, 0
  br i1 %72, label %73, label %75

73:                                               ; preds = %64
  %74 = load i32, ptr %6, align 4, !tbaa !4
  store i32 %74, ptr %3, align 4
  store i32 1, ptr %8, align 4
  br label %96

75:                                               ; preds = %64
  br label %76

76:                                               ; preds = %75, %58
  %77 = load ptr, ptr %7, align 8, !tbaa !15
  %78 = getelementptr inbounds nuw %struct.BagNode, ptr %77, i32 0, i32 5
  %79 = getelementptr inbounds nuw %struct.anon.40, ptr %78, i32 0, i32 1
  %80 = load ptr, ptr %79, align 8, !tbaa !32
  %81 = icmp ne ptr %80, null
  br i1 %81, label %82, label %94

82:                                               ; preds = %76
  %83 = load ptr, ptr %7, align 8, !tbaa !15
  %84 = getelementptr inbounds nuw %struct.BagNode, ptr %83, i32 0, i32 5
  %85 = getelementptr inbounds nuw %struct.anon.40, ptr %84, i32 0, i32 1
  %86 = load ptr, ptr %85, align 8, !tbaa !32
  %87 = load ptr, ptr %5, align 8, !tbaa !15
  %88 = call i32 @renumber_backref_traverse(ptr noundef %86, ptr noundef %87)
  store i32 %88, ptr %6, align 4, !tbaa !4
  %89 = load i32, ptr %6, align 4, !tbaa !4
  %90 = icmp ne i32 %89, 0
  br i1 %90, label %91, label %93

91:                                               ; preds = %82
  %92 = load i32, ptr %6, align 4, !tbaa !4
  store i32 %92, ptr %3, align 4
  store i32 1, ptr %8, align 4
  br label %96

93:                                               ; preds = %82
  br label %94

94:                                               ; preds = %93, %76
  br label %95

95:                                               ; preds = %94, %53
  store i32 0, ptr %8, align 4
  br label %96

96:                                               ; preds = %95, %91, %73, %51
  call void @llvm.lifetime.end.p0(i64 8, ptr %7) #9
  %97 = load i32, ptr %8, align 4
  switch i32 %97, label %120 [
    i32 0, label %98
  ]

98:                                               ; preds = %96
  br label %118

99:                                               ; preds = %2
  %100 = load ptr, ptr %4, align 8, !tbaa !47
  %101 = load ptr, ptr %5, align 8, !tbaa !15
  %102 = call i32 @renumber_backref_node(ptr noundef %100, ptr noundef %101)
  store i32 %102, ptr %6, align 4, !tbaa !4
  br label %118

103:                                              ; preds = %2
  %104 = load ptr, ptr %4, align 8, !tbaa !47
  %105 = getelementptr inbounds nuw %struct._Node, ptr %104, i32 0, i32 0
  %106 = getelementptr inbounds nuw %struct.anon.36, ptr %105, i32 0, i32 3
  %107 = load ptr, ptr %106, align 8, !tbaa !32
  %108 = icmp ne ptr %107, null
  br i1 %108, label %109, label %116

109:                                              ; preds = %103
  %110 = load ptr, ptr %4, align 8, !tbaa !47
  %111 = getelementptr inbounds nuw %struct._Node, ptr %110, i32 0, i32 0
  %112 = getelementptr inbounds nuw %struct.anon.36, ptr %111, i32 0, i32 3
  %113 = load ptr, ptr %112, align 8, !tbaa !32
  %114 = load ptr, ptr %5, align 8, !tbaa !15
  %115 = call i32 @renumber_backref_traverse(ptr noundef %113, ptr noundef %114)
  store i32 %115, ptr %6, align 4, !tbaa !4
  br label %116

116:                                              ; preds = %109, %103
  br label %118

117:                                              ; preds = %2
  br label %118

118:                                              ; preds = %117, %116, %99, %98, %33, %32
  %119 = load i32, ptr %6, align 4, !tbaa !4
  store i32 %119, ptr %3, align 4
  store i32 1, ptr %8, align 4
  br label %120

120:                                              ; preds = %118, %96
  call void @llvm.lifetime.end.p0(i64 4, ptr %6) #9
  %121 = load i32, ptr %3, align 4
  ret i32 %121
}