; Function Attrs: nofree nosync nounwind memory(readwrite, inaccessiblemem: none) uwtable
define internal fastcc range(i32 -209, 1) i32 @renumber_backref_traverse(ptr noundef captures(none) %0, ptr noundef nonnull %1) unnamed_addr #15 {
  br label %tailrecurse

tailrecurse:                                      ; preds = %tailrecurse.backedge, %2
  %.tr = phi ptr [ %0, %2 ], [ %.tr.be, %tailrecurse.backedge ]
  %3 = load i32, ptr %.tr, align 8, !tbaa !20
  switch i32 %3, label %.critedge [
    i32 7, label %.preheader
    i32 8, label %.preheader
    i32 4, label %12
    i32 5, label %15
    i32 3, label %31
    i32 6, label %54
  ]

.preheader:                                       ; preds = %tailrecurse, %tailrecurse
  br label %4

4:                                                ; preds = %.preheader, %9
  %.033 = phi ptr [ %11, %9 ], [ %.tr, %.preheader ]
  %5 = getelementptr inbounds nuw i8, ptr %.033, i64 16
  %6 = load ptr, ptr %5, align 8, !tbaa !20
  %7 = tail call fastcc i32 @renumber_backref_traverse(ptr noundef %6, ptr noundef %1)
  %8 = icmp eq i32 %7, 0
  br i1 %8, label %9, label %.critedge

9:                                                ; preds = %4
  %10 = getelementptr inbounds nuw i8, ptr %.033, i64 24
  %11 = load ptr, ptr %10, align 8, !tbaa !20
  %.not51 = icmp eq ptr %11, null
  br i1 %.not51, label %.critedge, label %4, !llvm.loop !253

12:                                               ; preds = %tailrecurse
  %13 = getelementptr inbounds nuw i8, ptr %.tr, i64 16
  %14 = load ptr, ptr %13, align 8, !tbaa !20
  br label %tailrecurse.backedge

tailrecurse.backedge:                             ; preds = %12, %28, %54
  %.tr.be = phi ptr [ %14, %12 ], [ %30, %28 ], [ %56, %54 ]
  br label %tailrecurse

15:                                               ; preds = %tailrecurse
  %16 = getelementptr inbounds nuw i8, ptr %.tr, i64 16
  %17 = load ptr, ptr %16, align 8, !tbaa !20
  %18 = tail call fastcc i32 @renumber_backref_traverse(ptr noundef %17, ptr noundef %1)
  %.not46 = icmp eq i32 %18, 0
  br i1 %.not46, label %19, label %.critedge

19:                                               ; preds = %15
  %20 = getelementptr inbounds nuw i8, ptr %.tr, i64 24
  %21 = load i32, ptr %20, align 8, !tbaa !98
  %22 = icmp eq i32 %21, 3
  br i1 %22, label %23, label %.critedge

23:                                               ; preds = %19
  %24 = getelementptr inbounds nuw i8, ptr %.tr, i64 32
  %25 = load ptr, ptr %24, align 8, !tbaa !20
  %.not47 = icmp eq ptr %25, null
  br i1 %.not47, label %28, label %26

26:                                               ; preds = %23
  %27 = tail call fastcc i32 @renumber_backref_traverse(ptr noundef nonnull %25, ptr noundef %1)
  %.not48 = icmp eq i32 %27, 0
  br i1 %.not48, label %28, label %.critedge

28:                                               ; preds = %26, %23
  %29 = getelementptr inbounds nuw i8, ptr %.tr, i64 40
  %30 = load ptr, ptr %29, align 8, !tbaa !20
  %.not49 = icmp eq ptr %30, null
  br i1 %.not49, label %.critedge, label %tailrecurse.backedge

31:                                               ; preds = %tailrecurse
  %32 = getelementptr inbounds nuw i8, ptr %.tr, i64 4
  %33 = load i32, ptr %32, align 4, !tbaa !20
  %34 = and i32 %33, 32768
  %.not.i = icmp eq i32 %34, 0
  br i1 %.not.i, label %.critedge, label %35

35:                                               ; preds = %31
  %36 = getelementptr inbounds nuw i8, ptr %.tr, i64 16
  %37 = load i32, ptr %36, align 8, !tbaa !130
  %38 = getelementptr inbounds nuw i8, ptr %.tr, i64 48
  %39 = load ptr, ptr %38, align 8, !tbaa !131
  %40 = icmp eq ptr %39, null
  %41 = getelementptr inbounds nuw i8, ptr %.tr, i64 20
  %.019.i = select i1 %40, ptr %41, ptr %39
  %42 = icmp sgt i32 %37, 0
  br i1 %42, label %.lr.ph.preheader.i, label %._crit_edge.i

.lr.ph.preheader.i:                               ; preds = %35
  %wide.trip.count.i = zext nneg i32 %37 to i64
  br label %.lr.ph.i

.lr.ph.i:                                         ; preds = %53, %.lr.ph.preheader.i
  %indvars.iv.i = phi i64 [ 0, %.lr.ph.preheader.i ], [ %indvars.iv.next.i, %53 ]
  %.02124.i = phi i32 [ 0, %.lr.ph.preheader.i ], [ %.1.i, %53 ]
  %43 = getelementptr inbounds nuw i32, ptr %.019.i, i64 %indvars.iv.i
  %44 = load i32, ptr %43, align 4, !tbaa !4
  %45 = sext i32 %44 to i64
  %46 = getelementptr inbounds %struct.GroupNumMap, ptr %1, i64 %45
  %47 = load i32, ptr %46, align 4, !tbaa !197
  %48 = icmp sgt i32 %47, 0
  br i1 %48, label %49, label %53

49:                                               ; preds = %.lr.ph.i
  %50 = sext i32 %.02124.i to i64
  %51 = getelementptr inbounds i32, ptr %.019.i, i64 %50
  store i32 %47, ptr %51, align 4, !tbaa !4
  %52 = add nsw i32 %.02124.i, 1
  br label %53

53:                                               ; preds = %49, %.lr.ph.i
  %.1.i = phi i32 [ %52, %49 ], [ %.02124.i, %.lr.ph.i ]
  %indvars.iv.next.i = add nuw nsw i64 %indvars.iv.i, 1
  %exitcond.not.i = icmp eq i64 %indvars.iv.next.i, %wide.trip.count.i
  br i1 %exitcond.not.i, label %._crit_edge.i, label %.lr.ph.i, !llvm.loop !254

._crit_edge.i:                                    ; preds = %53, %35
  %.021.lcssa.i = phi i32 [ 0, %35 ], [ %.1.i, %53 ]
  store i32 %.021.lcssa.i, ptr %36, align 8, !tbaa !130
  br label %.critedge

54:                                               ; preds = %tailrecurse
  %55 = getelementptr inbounds nuw i8, ptr %.tr, i64 16
  %56 = load ptr, ptr %55, align 8, !tbaa !20
  %.not = icmp eq ptr %56, null
  br i1 %.not, label %.critedge, label %tailrecurse.backedge

.critedge:                                        ; preds = %26, %15, %28, %19, %54, %tailrecurse, %9, %4, %._crit_edge.i, %31
  %.1 = phi i32 [ 0, %._crit_edge.i ], [ -209, %31 ], [ %7, %4 ], [ 0, %9 ], [ %18, %15 ], [ %27, %26 ], [ 0, %19 ], [ 0, %28 ], [ 0, %54 ], [ 0, %tailrecurse ]
  ret i32 %.1
}